; Function Attrs: mustprogress nounwind uwtable
define dso_local void @_ZN4llvm20LostDebugLocObserver12erasingInstrERNS_12MachineInstrE(ptr noundef nonnull align 8 dereferenceable(252) %0, ptr noundef nonnull align 8 dereferenceable(70) %1) unnamed_addr #0 align 2 {
  %3 = alloca %"struct.std::pair.0", align 8
  %4 = getelementptr inbounds nuw i8, ptr %1, i64 68
  %5 = load i16, ptr %4, align 4
  switch i16 %5, label %_ZL30irTranslatorNeverAddsLocationsj.exit [
    i16 128, label %_ZL30irTranslatorNeverAddsLocationsj.exit.thread
    i16 129, label %_ZL30irTranslatorNeverAddsLocationsj.exit.thread
    i16 64, label %_ZL30irTranslatorNeverAddsLocationsj.exit.thread
    i16 67, label %_ZL30irTranslatorNeverAddsLocationsj.exit.thread
  ]

_ZL30irTranslatorNeverAddsLocationsj.exit:        ; preds = %2
  %6 = getelementptr inbounds nuw i8, ptr %0, i64 184
  %7 = getelementptr inbounds nuw i8, ptr %0, i64 192
  %8 = load ptr, ptr %7, align 8
  %9 = load ptr, ptr %6, align 8
  %10 = icmp eq ptr %8, %9
  br i1 %10, label %11, label %25

11:                                               ; preds = %_ZL30irTranslatorNeverAddsLocationsj.exit
  %12 = getelementptr inbounds nuw i8, ptr %0, i64 204
  %13 = load i32, ptr %12, align 4
  %14 = zext i32 %13 to i64
  %15 = getelementptr inbounds nuw ptr, ptr %9, i64 %14
  %.not1315.i.i = icmp eq i32 %13, 0
  br i1 %.not1315.i.i, label %_ZN4llvm15SmallPtrSetImplIPNS_12MachineInstrEE5eraseES2_.exit, label %.lr.ph.i.i

.lr.ph.i.i:                                       ; preds = %11, %23
  %.01116.i.i = phi ptr [ %24, %23 ], [ %9, %11 ]
  %16 = load ptr, ptr %.01116.i.i, align 8
  %17 = icmp eq ptr %16, %1
  br i1 %17, label %18, label %23

18:                                               ; preds = %.lr.ph.i.i
  %19 = add i32 %13, -1
  store i32 %19, ptr %12, align 4
  %20 = zext i32 %19 to i64
  %21 = getelementptr inbounds nuw ptr, ptr %9, i64 %20
  %22 = load ptr, ptr %21, align 8
  store ptr %22, ptr %.01116.i.i, align 8
  br label %_ZN4llvm15SmallPtrSetImplIPNS_12MachineInstrEE5eraseES2_.exit

23:                                               ; preds = %.lr.ph.i.i
  %24 = getelementptr inbounds nuw i8, ptr %.01116.i.i, i64 8
  %.not13.i.i = icmp eq ptr %24, %15
  br i1 %.not13.i.i, label %_ZN4llvm15SmallPtrSetImplIPNS_12MachineInstrEE5eraseES2_.exit, label %.lr.ph.i.i, !llvm.loop !15

25:                                               ; preds = %_ZL30irTranslatorNeverAddsLocationsj.exit
  %26 = tail call noundef ptr @_ZNK4llvm19SmallPtrSetImplBase6doFindEPKv(ptr noundef nonnull align 8 dereferenceable(28) %6, ptr noundef nonnull %1) #9
  %.not.i.i = icmp eq ptr %26, null
  br i1 %.not.i.i, label %_ZN4llvm15SmallPtrSetImplIPNS_12MachineInstrEE5eraseES2_.exit, label %27

27:                                               ; preds = %25
  store ptr inttoptr (i64 -2 to ptr), ptr %26, align 8
  %28 = getelementptr inbounds nuw i8, ptr %0, i64 208
  %29 = load i32, ptr %28, align 8
  %30 = add i32 %29, 1
  store i32 %30, ptr %28, align 8
  br label %_ZN4llvm15SmallPtrSetImplIPNS_12MachineInstrEE5eraseES2_.exit

_ZN4llvm15SmallPtrSetImplIPNS_12MachineInstrEE5eraseES2_.exit: ; preds = %23, %11, %18, %25, %27
  %31 = getelementptr inbounds nuw i8, ptr %1, i64 56
  %32 = load ptr, ptr %31, align 8
  %.not = icmp eq ptr %32, null
  br i1 %.not, label %_ZL30irTranslatorNeverAddsLocationsj.exit.thread, label %33

33:                                               ; preds = %_ZN4llvm15SmallPtrSetImplIPNS_12MachineInstrEE5eraseES2_.exit
  %34 = getelementptr inbounds nuw i8, ptr %0, i64 88
  call void @_ZN4llvm8SmallSetINS_8DebugLocELj4ESt4lessIS1_EE6insertERKS1_(ptr dead_on_unwind nonnull writable sret(%"struct.std::pair.0") align 8 %3, ptr noundef nonnull align 8 dereferenceable(96) %34, ptr noundef nonnull align 8 dereferenceable(8) %31)
  br label %_ZL30irTranslatorNeverAddsLocationsj.exit.thread

_ZL30irTranslatorNeverAddsLocationsj.exit.thread: ; preds = %2, %2, %2, %2, %33, %_ZN4llvm15SmallPtrSetImplIPNS_12MachineInstrEE5eraseES2_.exit
  ret void
}